target datalayout = "e-m:e-p270:32:32-p271:32:32-p272:64:64-i64:64-i128:128-f80:128-n8:16:32:64-S128"
target triple = "x86_64-pc-linux-gnu"

%class.Pipeline_Use_Element = type { i32, i32, i32, i8, %class.Pipeline_Use_Cycle_Mask }
%class.Pipeline_Use_Cycle_Mask = type { i32 }
%class.Node_List = type <{ %class.Node_Array, i32, [4 x i8] }>
%class.Node_Array = type { ptr, i32, ptr }
%class.Node = type <{ ptr, ptr, ptr, i32, i32, i32, i32, i32, i32, i32, [4 x i8] }>
%class.Scheduling = type { ptr, ptr, ptr, i32, [4 x i8], %class.Node_List, %class.Node_List, ptr, %class.Node_List, %class.Node_List, ptr, i32, i32, ptr, ptr, ptr, ptr, i32, i32, [11 x %class.Pipeline_Use_Element], %class.Pipeline_Use }
%class.Pipeline_Use = type { i32, i32, i32, ptr }
%class.Bundle = type { [3 x i8], i8 }

@_ZN12Pipeline_Use19elaborated_elementsE = external global [11 x %class.Pipeline_Use_Element], align 16

; Function Attrs: mustprogress nounwind uwtable
define linkonce_odr hidden void @_ZN12Pipeline_Use5resetEv(ptr noundef nonnull align 8 dereferenceable(24) %0) #1 comdat align 2 {
  %2 = alloca ptr, align 8
  store ptr %0, ptr %2, align 8
  %3 = load ptr, ptr %2, align 8
  %4 = getelementptr inbounds %class.Pipeline_Use, ptr %3, i32 0, i32 1
  store i32 0, ptr %4, align 4
  %5 = getelementptr inbounds %class.Pipeline_Use, ptr %3, i32 0, i32 0
  store i32 0, ptr %5, align 8
  ret void
}

; Function Attrs: mustprogress nounwind uwtable
define linkonce_odr hidden void @_ZN6Bundle18set_resources_usedEj(ptr noundef nonnull align 4 dereferenceable(3) %0, i32 noundef %1) #1 comdat align 2 {
  %3 = alloca ptr, align 8
  %4 = alloca i32, align 4
  store ptr %0, ptr %3, align 8
  store i32 %1, ptr %4, align 4
  %5 = load ptr, ptr %3, align 8
  %6 = load i32, ptr %4, align 4
  %7 = trunc i32 %6 to i24
  %8 = load i24, ptr %5, align 4
  %9 = and i24 %7, 2047
  %10 = shl i24 %9, 6
  %11 = and i24 %8, -131009
  %12 = or i24 %11, %10
  store i24 %12, ptr %5, align 4
  ret void
}

; Function Attrs: mustprogress nounwind uwtable
define linkonce_odr hidden noundef i32 @_ZNK12Pipeline_Use13resourcesUsedEv(ptr noundef nonnull align 8 dereferenceable(24) %0) #1 comdat align 2 {
  %2 = alloca ptr, align 8
  store ptr %0, ptr %2, align 8
  %3 = load ptr, ptr %2, align 8
  %4 = getelementptr inbounds %class.Pipeline_Use, ptr %3, i32 0, i32 0
  %5 = load i32, ptr %4, align 8
  ret i32 %5
}

; Function Attrs: mustprogress nounwind uwtable
define linkonce_odr hidden void @_ZN6Bundle15set_instr_countEj(ptr noundef nonnull align 4 dereferenceable(3) %0, i32 noundef %1) #1 comdat align 2 {
  %3 = alloca ptr, align 8
  %4 = alloca i32, align 4
  store ptr %0, ptr %3, align 8
  store i32 %1, ptr %4, align 4
  %5 = load ptr, ptr %3, align 8
  %6 = load i32, ptr %4, align 4
  %7 = trunc i32 %6 to i24
  %8 = load i24, ptr %5, align 4
  %9 = and i24 %7, 3
  %10 = shl i24 %9, 4
  %11 = and i24 %8, -49
  %12 = or i24 %11, %10
  store i24 %12, ptr %5, align 4
  ret void
}

; Function Attrs: mustprogress nounwind uwtable
define linkonce_odr hidden void @_ZN6Bundle17set_starts_bundleEv(ptr noundef nonnull align 4 dereferenceable(3) %0) #1 comdat align 2 {
  %2 = alloca ptr, align 8
  store ptr %0, ptr %2, align 8
  %3 = load ptr, ptr %2, align 8
  %4 = load i24, ptr %3, align 4
  %5 = and i24 %4, -9
  %6 = or i24 %5, 8
  store i24 %6, ptr %3, align 4
  ret void
}

; Function Attrs: mustprogress nounwind uwtable
define linkonce_odr hidden noundef ptr @_ZN10Scheduling13node_bundlingEPK4Node(ptr noundef nonnull align 8 dereferenceable(472) %0, ptr noundef %1) #1 comdat align 2 {
  %3 = alloca ptr, align 8
  %4 = alloca ptr, align 8
  store ptr %0, ptr %3, align 8
  store ptr %1, ptr %4, align 8
  %5 = load ptr, ptr %3, align 8
  %6 = getelementptr inbounds %class.Scheduling, ptr %5, i32 0, i32 7
  %7 = load ptr, ptr %6, align 8
  %8 = load ptr, ptr %4, align 8
  %9 = getelementptr inbounds %class.Node, ptr %8, i32 0, i32 7
  %10 = load i32, ptr %9, align 8
  %11 = zext i32 %10 to i64
  %12 = getelementptr inbounds %class.Bundle, ptr %7, i64 %11
  ret ptr %12
}

; Function Attrs: mustprogress nounwind uwtable
define hidden void @_ZN10Scheduling14step_and_clearEv(ptr noundef nonnull align 8 dereferenceable(472) %0) #1 align 2 {
  %2 = alloca ptr, align 8
  %3 = alloca ptr, align 8
  store ptr %0, ptr %2, align 8
  %4 = load ptr, ptr %2, align 8
  %5 = getelementptr inbounds %class.Scheduling, ptr %4, i32 0, i32 14
  %6 = load ptr, ptr %5, align 8
  %7 = call noundef ptr @_ZN10Scheduling13node_bundlingEPK4Node(ptr noundef nonnull align 8 dereferenceable(472) %4, ptr noundef %6)
  store ptr %7, ptr %3, align 8
  %8 = load ptr, ptr %3, align 8
  call void @_ZN6Bundle17set_starts_bundleEv(ptr noundef nonnull align 4 dereferenceable(3) %8)
  %9 = getelementptr inbounds %class.Scheduling, ptr %4, i32 0, i32 17
  %10 = load i32, ptr %9, align 8
  %11 = icmp ugt i32 %10, 0
  br i1 %11, label %12, label %22

12:                                               ; preds = %1
  %13 = load ptr, ptr %3, align 8
  %14 = getelementptr inbounds %class.Scheduling, ptr %4, i32 0, i32 17
  %15 = load i32, ptr %14, align 8
  call void @_ZN6Bundle15set_instr_countEj(ptr noundef nonnull align 4 dereferenceable(3) %13, i32 noundef %15)
  %16 = load ptr, ptr %3, align 8
  %17 = getelementptr inbounds %class.Scheduling, ptr %4, i32 0, i32 20
  %18 = call noundef i32 @_ZNK12Pipeline_Use13resourcesUsedEv(ptr noundef nonnull align 8 dereferenceable(24) %17)
  call void @_ZN6Bundle18set_resources_usedEj(ptr noundef nonnull align 4 dereferenceable(3) %16, i32 noundef %18)
  %19 = getelementptr inbounds %class.Scheduling, ptr %4, i32 0, i32 18
  %20 = load i32, ptr %19, align 4
  %21 = add i32 %20, 1
  store i32 %21, ptr %19, align 4
  br label %22

22:                                               ; preds = %12, %1
  %23 = getelementptr inbounds %class.Scheduling, ptr %4, i32 0, i32 17
  store i32 0, ptr %23, align 8
  %24 = getelementptr inbounds %class.Scheduling, ptr %4, i32 0, i32 20
  call void @_ZN12Pipeline_Use5resetEv(ptr noundef nonnull align 8 dereferenceable(24) %24)
  %25 = getelementptr inbounds %class.Scheduling, ptr %4, i32 0, i32 19
  %26 = getelementptr inbounds [11 x %class.Pipeline_Use_Element], ptr %25, i64 0, i64 0
  call void @llvm.memcpy.p0.p0.i64(ptr align 8 %26, ptr align 16 @_ZN12Pipeline_Use19elaborated_elementsE, i64 220, i1 false)
  ret void
}