; Function Attrs: mustprogress nofree norecurse nosync nounwind willreturn memory(readwrite, inaccessiblemem: none) uwtable
define hidden void @_ZN10Scheduling14step_and_clearEv(ptr nocapture noundef nonnull align 8 dereferenceable(472) %0) local_unnamed_addr #9 align 2 {
  %2 = getelementptr inbounds i8, ptr %0, i64 192
  %3 = load ptr, ptr %2, align 8
  %4 = getelementptr inbounds i8, ptr %0, i64 96
  %5 = load ptr, ptr %4, align 8
  %6 = getelementptr inbounds i8, ptr %3, i64 40
  %7 = load i32, ptr %6, align 8
  %8 = zext i32 %7 to i64
  %9 = getelementptr inbounds %class.Bundle, ptr %5, i64 %8
  %10 = load i24, ptr %9, align 4
  %11 = or i24 %10, 8
  store i24 %11, ptr %9, align 4
  %12 = getelementptr inbounds i8, ptr %0, i64 216
  %13 = load i32, ptr %12, align 8
  %.not = icmp eq i32 %13, 0
  br i1 %.not, label %30, label %14

14:                                               ; preds = %1
  %15 = trunc i32 %13 to i24
  %16 = shl i24 %15, 4
  %17 = and i24 %16, 48
  %18 = and i24 %11, -49
  %19 = or disjoint i24 %17, %18
  store i24 %19, ptr %9, align 4
  %20 = getelementptr inbounds i8, ptr %0, i64 448
  %21 = load i32, ptr %20, align 8
  %22 = trunc i32 %21 to i24
  %23 = shl i24 %22, 6
  %24 = and i24 %23, 131008
  %25 = and i24 %19, -131009
  %26 = or disjoint i24 %24, %25
  store i24 %26, ptr %9, align 4
  %27 = getelementptr inbounds i8, ptr %0, i64 220
  %28 = load i32, ptr %27, align 4
  %29 = add i32 %28, 1
  store i32 %29, ptr %27, align 4
  br label %30

30:                                               ; preds = %14, %1
  store i32 0, ptr %12, align 8
  %31 = getelementptr inbounds i8, ptr %0, i64 448
  %32 = getelementptr inbounds i8, ptr %0, i64 452
  store i32 0, ptr %32, align 4
  store i32 0, ptr %31, align 8
  %33 = getelementptr inbounds i8, ptr %0, i64 224
  tail call void @llvm.memcpy.p0.p0.i64(ptr noundef nonnull align 8 dereferenceable(220) %33, ptr noundef nonnull align 16 dereferenceable(220) @_ZN12Pipeline_Use19elaborated_elementsE, i64 220, i1 false)
  ret void
}